
main:     file format elf32-littleriscv
main
architecture: riscv:rv32, flags 0x00000112:
EXEC_P, HAS_SYMS, D_PAGED
start address 0x00000000

Program Header:
    LOAD off    0x00001000 vaddr 0x00000000 paddr 0x00000000 align 2**12
         filesz 0x0000028c memsz 0x0000028c flags r-x
    LOAD off    0x00002000 vaddr 0x00010000 paddr 0x20000000 align 2**12
         filesz 0x000003f0 memsz 0x000003f0 flags r-x
    LOAD off    0x00000000 vaddr 0x20100000 paddr 0x20100000 align 2**12
         filesz 0x00000000 memsz 0x00004000 flags rw-
    LOAD off    0x00003000 vaddr 0x00020000 paddr 0x20104000 align 2**12
         filesz 0x00003036 memsz 0x00003038 flags rw-
    LOAD off    0x00000038 vaddr 0x00023038 paddr 0x20107036 align 2**12
         filesz 0x00000000 memsz 0x00001000 flags rw-

Sections:
Idx Name          Size      VMA       LMA       File off  Algn
  0 .text0        0000028c  00000000  00000000  00001000  2**2
                  CONTENTS, ALLOC, LOAD, READONLY, CODE
  1 .text1        000003f0  00010000  20000000  00002000  2**2
                  CONTENTS, ALLOC, LOAD, READONLY, CODE
  2 _test         00004000  20100000  20100000  00003000  2**0
                  ALLOC
  3 .data         00003036  00020000  20104000  00003000  2**0
                  CONTENTS, ALLOC, LOAD, DATA
  4 .bss          00000002  00023036  20107036  00006036  2**0
                  ALLOC
  5 .stack        00001000  00023038  20107036  00006038  2**0
                  ALLOC
  6 .comment      00000012  00000000  00000000  00006036  2**0
                  CONTENTS, READONLY
  7 .riscv.attributes 0000001c  00000000  00000000  00006048  2**0
                  CONTENTS, READONLY
SYMBOL TABLE:
00000000 l    d  .text0	00000000 .text0
00010000 l    d  .text1	00000000 .text1
20100000 l    d  _test	00000000 _test
00020000 l    d  .data	00000000 .data
00023036 l    d  .bss	00000000 .bss
00023038 l    d  .stack	00000000 .stack
00000000 l    d  .comment	00000000 .comment
00000000 l    d  .riscv.attributes	00000000 .riscv.attributes
00000000 l    df *ABS*	00000000 setup.o
00000084 l       .text0	00000000 init_bss
00000108 l       .text0	00000000 fill_block
0000009c l       .text0	00000000 init_sbss
000000b4 l       .text0	00000000 write_stack_pattern
000000cc l       .text0	00000000 init_stack
000000d4 l       .text0	00000000 write_test_pattern
000000ec l       .text0	00000000 SystemInit
000000f4 l       .text0	00000000 SystemExit
00000104 l       .text0	00000000 dead_loop
00000118 l       .text0	00000000 fb_end
00000000 l    df *ABS*	00000000 boot.c
00000000 l    df *ABS*	00000000 main.c
20100000 g       _test	00000000 _test_start
20104000 g       *ABS*	00000000 __data_paddr_start
00003036 g       *ABS*	00000000 _binary_image_bmp_size
00020000 g       .data	00000000 _binary_image_bmp_start
00020000 g       _test	00000000 __sbss_start
00020800 g       _test	00000000 _gp
20104000 g       _test	00000000 _test_end
00010000 g       .text1	00000000 _imem_start
00004000 g       *ABS*	00000000 _TEST_SIZE
20104000 g       *ABS*	00000000 __sdata_paddr_start
00020000 g       _test	00000000 __sdata_start
000103f0 g       .text1	00000000 __rodata_end
0000011c g     F .text0	00000170 boot
00023038 g       .bss	00000000 __bss_end
00020000 g       _test	00000000 __sbss_end
00000000 g       .text0	00000000 _start
000103f0 g       .text1	00000000 __rodata_start
00023036 g       .data	00000000 __data_end
20000000 g       .text1	00000000 _dram_i_start
00023038 g       .bss	00000000 __bss_start
00001000 g       *ABS*	00000000 _STACK_SIZE
0002fffc g       .stack	00000000 _sim_end
00010000 g     F .text1	000003f0 main
00023038 g       .stack	00000000 _stack_end
00020000 g       _test	00000000 __sdata_end
200003f0 g       .text1	00000000 _dram_i_end
00024038 g       .stack	00000000 __stack
00030000 g       .stack	00000000 _end
00023036 g       .data	00000000 _binary_image_bmp_end
00024038 g       .stack	00000000 _stack
00020000 g       .data	00000000 __data_start


Contents of section .text0:
 0000 93000000 13010000 93010000 13020000  ................
 0010 93020000 13030000 93030000 13040000  ................
 0020 93040000 13050000 93050000 13060000  ................
 0030 93060000 13070000 93070000 13080000  ................
 0040 93080000 13090000 93090000 130a0000  ................
 0050 930a0000 130b0000 930b0000 130c0000  ................
 0060 930c0000 130d0000 930d0000 130e0000  ................
 0070 930e0000 130f0000 930f0000 97010200  ................
 0080 93814178 17350200 130545fb 97350200  ..Ax.5....E..5..
 0090 938585fa 13060000 ef000007 17050200  ................
 00a0 130545f6 97050200 938585f5 13060000  ..E.............
 00b0 ef008005 17350200 130545f8 97450200  .....5....E..E..
 00c0 938585f7 13060000 ef000004 17410200  .............A..
 00d0 1301c1f6 17051020 1305c5f2 97451020  ....... .....E. 
 00e0 938505f2 13060000 ef000002 ef000003  ................
 00f0 eff01071 97020300 938282f0 1303f0ff  ...q............
 0100 23a06200 6f000000 63e8a500 2320c500  #.b.o...c...# ..
 0110 13054500 6ff05fff 67800000 130101fe  ..E.o._.g.......
 0120 232e8100 13040102 b7070020 1387073f  #.......... ...?
 0130 b7070020 93870700 b307f740 93d72740  ... .......@..'@
 0140 93871700 2324f4fe 232604fe 6f000004  ....#$..#&..o...
 0150 8327c4fe 13972700 b7070020 93870700  .'....'.... ....
 0160 3307f700 8327c4fe 93962700 b7070100  3....'....'.....
 0170 93870700 b387f600 03270700 23a0e700  .........'..#...
 0180 8327c4fe 93871700 2326f4fe 0327c4fe  .'......#&...'..
 0190 832784fe e34ef7fa b7070200 13870700  .'...N..........
 01a0 b7070200 93870700 b307f740 93d72740  ...........@..'@
 01b0 93871700 2324f4fe 232604fe 6f000004  ....#$..#&..o...
 01c0 8327c4fe 13972700 b7471020 93870700  .'....'..G. ....
 01d0 3307f700 8327c4fe 93962700 b7070200  3....'....'.....
 01e0 93870700 b387f600 03270700 23a0e700  .........'..#...
 01f0 8327c4fe 93871700 2326f4fe 0327c4fe  .'......#&...'..
 0200 832784fe e34ef7fa b7370200 13876703  .'...N...7....g.
 0210 b7070200 93870700 b307f740 93d72740  ...........@..'@
 0220 93871700 2324f4fe 232604fe 6f000004  ....#$..#&..o...
 0230 8327c4fe 13972700 b7471020 93870700  .'....'..G. ....
 0240 3307f700 8327c4fe 93962700 b7070200  3....'....'.....
 0250 93870700 b387f600 03270700 23a0e700  .........'..#...
 0260 8327c4fe 93871700 2326f4fe 0327c4fe  .'......#&...'..
 0270 832784fe e34ef7fa 13000000 13000000  .'...N..........
 0280 0324c101 13010102 67800000           .$......g...    
Contents of section .text1:
 10000 130101fd 23268102 13040103 232604fe  ....#&......#&..
 10010 6f008003 0327c4fe b7070200 93870700  o....'..........
 10020 3307f700 8326c4fe b7071020 93870700  3....&..... ....
 10030 b387f600 03470700 2380e700 8327c4fe  .....G..#....'..
 10040 93871700 2326f4fe 0327c4fe 93075003  ....#&...'....P.
 10050 e3d2e7fc 232204fe 232004fe 232e04fc  ....#"..# ..#...
 10060 93076003 2324f4fe 6f004036 232c04fc  ..`.#$..o.@6#,..
 10070 232a04fc 032784fe b7070200 93870700  #*...'..........
 10080 b307f700 83c70700 232ef4fc 832784fe  ........#....'..
 10090 13871700 b7070200 93870700 b307f700  ................
 100a0 83c70700 2320f4fe 832784fe 13872700  ....# ...'....'.
 100b0 b7070200 93870700 b307f700 83c70700  ................
 100c0 2322f4fe 832744fe 93972701 232af4fc  #"...'D...'.#*..
 100d0 032784fd 832744fd b307f700 232cf4fc  .'...'D.....#,..
 100e0 832744fe 9397f700 232af4fc 032784fd  .'D.....#*...'..
 100f0 832744fd b307f700 232cf4fc 832744fe  .'D.....#,...'D.
 10100 9397e700 232af4fc 032784fd 832744fd  ....#*...'...'D.
 10110 b307f700 232cf4fc 832744fe 9397b700  ....#,...'D.....
 10120 232af4fc 032784fd 832744fd b307f700  #*...'...'D.....
 10130 232cf4fc 832744fe 9397a700 232af4fc  #,...'D.....#*..
 10140 032784fd 832744fd b307f700 232cf4fc  .'...'D.....#,..
 10150 832744fe 93977700 232af4fc 032784fd  .'D...w.#*...'..
 10160 832744fd b307f700 232cf4fc 832744fe  .'D.....#,...'D.
 10170 93976700 232af4fc 032784fd 832744fd  ..g.#*...'...'D.
 10180 b307f700 232cf4fc 832744fe 93973700  ....#,...'D...7.
 10190 232af4fc 032784fd 832744fd b307f700  #*...'...'D.....
 101a0 232cf4fc 832744fe 93972700 232af4fc  #,...'D...'.#*..
 101b0 032784fd 832744fd b307f700 232cf4fc  .'...'D.....#,..
 101c0 032784fd 832744fe b307f700 232cf4fc  .'...'D.....#,..
 101d0 832704fe 93973701 232af4fc 032784fd  .'....7.#*...'..
 101e0 832744fd b307f700 232cf4fc 832704fe  .'D.....#,...'..
 101f0 93970701 232af4fc 032784fd 832744fd  ....#*...'...'D.
 10200 b307f700 232cf4fc 832704fe 9397e700  ....#,...'......
 10210 232af4fc 032784fd 832744fd b307f700  #*...'...'D.....
 10220 232cf4fc 832704fe 9397d700 232af4fc  #,...'......#*..
 10230 032784fd 832744fd b307f700 232cf4fc  .'...'D.....#,..
 10240 832704fe 9397c700 232af4fc 032784fd  .'......#*...'..
 10250 832744fd b307f700 232cf4fc 832704fe  .'D.....#,...'..
 10260 93977700 232af4fc 032784fd 832744fd  ..w.#*...'...'D.
 10270 b307f700 232cf4fc 832704fe 93975700  ....#,...'....W.
 10280 232af4fc 032784fd 832744fd b307f700  #*...'...'D.....
 10290 232cf4fc 832704fe 93972700 232af4fc  #,...'....'.#*..
 102a0 032784fd 832744fd b307f700 232cf4fc  .'...'D.....#,..
 102b0 8327c4fd 93970701 232af4fc 032784fd  .'......#*...'..
 102c0 832744fd b307f700 232cf4fc 8327c4fd  .'D.....#,...'..
 102d0 9397f700 232af4fc 032784fd 832744fd  ....#*...'...'D.
 102e0 b307f700 232cf4fc 8327c4fd 9397e700  ....#,...'......
 102f0 232af4fc 032784fd 832744fd b307f700  #*...'...'D.....
 10300 232cf4fc 8327c4fd 93979700 232af4fc  #,...'......#*..
 10310 032784fd 832744fd b307f700 232cf4fc  .'...'D.....#,..
 10320 8327c4fd 93977700 232af4fc 032784fd  .'....w.#*...'..
 10330 832744fd b307f700 232cf4fc 8327c4fd  .'D.....#,...'..
 10340 93974700 232af4fc 032784fd 832744fd  ..G.#*...'...'D.
 10350 b307f700 232cf4fc 832784fd 93d74741  ....#,...'....GA
 10360 232cf4fc 032784fe b7071020 93870700  #,...'..... ....
 10370 b307f700 032784fd 1377f70f 2380e700  .....'...w..#...
 10380 832784fe 13871700 b7071020 93870700  .'......... ....
 10390 b307f700 032784fd 1377f70f 2380e700  .....'...w..#...
 103a0 832784fe 13872700 b7071020 93870700  .'....'.... ....
 103b0 b307f700 032784fd 1377f70f 2380e700  .....'...w..#...
 103c0 832784fe 93873700 2324f4fe 032784fe  .'....7.#$...'..
 103d0 b7370000 93876703 e36af7c8 93070000  .7....g..j......
 103e0 13850700 0324c102 13010103 67800000  .....$......g...
Contents of section .data:
 20000 424d3630 00000000 00003600 00002800  BM60......6...(.
 20010 00004000 00004000 00000100 18000000  ..@...@.........
 20020 00000030 0000c40e 0000c40e 00000000  ...0............
 20030 00000000 0000ffff ffffffff ffffffff  ................
 20040 ffffffff ffffffff ffffffff ffffffff  ................
 20050 ffffffff ffffffff ffffffff ffffffff  ................
 20060 ffffffff ffffffff ffffffff ffffffff  ................
 20070 ffffffff ffffffff ffffffff ffffffff  ................
 20080 ffffffff ffffffff ffffffff ffffffff  ................
 20090 ffffffff ffffffff ffffffff ffffffff  ................
 200a0 ffffffff ffffffff d3d4d597 94939a92  ................
 200b0 8e969798 e6e9eabd bdbde5e5 e5ffffff  ................
 200c0 ffffffff ffffffff ffffffff ffffffff  ................
 200d0 ffffffff ffffffff ffffffff ffffffff  ................
 200e0 ffffffff ffffffff ffffffff ffffffff  ................
 200f0 ffffffff ffffffff ffffffff ffffffff  ................
 20100 ffffffff ffffffff ffffffff ffffffff  ................
 20110 ffffffff ffffffff ffffffff ffffffff  ................
 20120 ffffffff ffffffff ffffffff ffffffff  ................
 20130 ffffffff ffffffff ffffffff ffffffff  ................
 20140 ffffffff ffffffff ffffffff ffffffff  ................
 20150 ffffffff ffffffff ffffffff ffffffff  ................
 20160 ffff9e9b 97455060 907e74ff ffff4e4b  .....EP`.~t...NK
 20170 488a7b75 b49b8fd4 c0b68d8d 8cffffff  H.{u............
 20180 ffffffff ffffffff ffffffff ffffffff  ................
 20190 ffffffff ffffffff ffffffff ffffffff  ................
 201a0 ffffffff ffffffff ffffffff ffffffff  ................
 201b0 ffffffff ffffffff ffffffff ffffffff  ................
 201c0 ffffffff ffffffff fffffff9 fafb6862  ..............hb
 201d0 5fc1bcba 696a6a9a 918ebcbd beffffff  _...ijj.........
 201e0 ffffffff ffffffff ffffffff ffffffff  ................
 201f0 ffffffff ffffffff ffffffff ffffffff  ................
 20200 ffffffff ffffffff ffffffff ffffffff  ................
 20210 ffffffff ffffffff ffffffff ffffff88  ................
 20220 8d975473 a96b8fcc bab4af5f 666f546b  ..Ts.k....._foTk
 20230 94f7d1bb e7dcd64e 4541bcb1 aca7a5a5  .......NEA......
 20240 ffffffff ffffffff ffffffff ffffffff  ................
 20250 ffffffff ffffffff ffffffff ffffffff  ................
 20260 ffffffff ffffffff ffffffff ffffffff  ................
 20270 ffffffff ffffffff ffffffff ffffffff  ................
 20280 ffffffff ffffffff aaababc1 b5b06767  ..............gg
 20290 66fff7ef a99e99cf cac7f0dc d27c7570  f............|up
 202a0 88909ad1 cec9ffff ffffffff ffffffff  ................
 202b0 ffffffff ffffffff ffffffff ffffffff  ................
 202c0 ffffffff ffffffff ffffffff ffffffff  ................
 202d0 ffffffff ffffffff ffffffff ffffff4f  ...............O
 202e0 668d7594 c97290c2 6584b770 8fc27395  f.u..r..e..p..s.
 202f0 cc687083 0c1422ff eddf807c 7aebecec  .hp..."....|z...
 20300 ffffffff ffffffff ffffffff ffffffff  ................
 20310 ffffffff ffffffff ffffffff ffffffff  ................
 20320 ffffffff ffffffff ffffffff ffffffff  ................
 20330 ffffffff ffffffff ffffffff ffffffff  ................
 20340 ffffffff ffffffff ffffff92 8f8df0dd  ................
 20350 d5aaa6a2 fff9eb5b 5b63b7b6 b65f7091  .......[[c..._p.
 20360 6f90c85a 78a94357 78667288 7c8189b1  o..Zx.CWxfr.|...
 20370 afaaffff ffffffff ffffffff ffffffff  ................
 20380 ffffffff ffffffff ffffffff ffffffff  ................
 20390 ffffffff ffffffff ffffffff bab9b666  ...............f
 203a0 88c07290 c2728ec0 728fbe72 8fbf728f  ..r..r..r..r..r.
 203b0 c17496cc 7094d042 4141fcfc fcffffff  .t..p..BAA......
 203c0 ffffffff ffffffff ffffffff ffffffff  ................
 203d0 ffffffff ffffffff ffffffff ffffffff  ................
 203e0 ffffffff ffffffff ffffffff ffffffff  ................
 203f0 ffffffff ffffffff ffffffff ffffffff  ................
 20400 ffffffff ffffffff ffffffff ffffacab  ................
 20410 a8586784 8b98af64 85bc5773 a17595cc  .Xg....d..Ws.u..
 20420 7290c271 8fbe7391 c2718fc1 7394ce44  r..q..s..q..s..D
 20430 6296c2c0 bcffffff ffffffff ffffffff  b...............
 20440 ffffffff ffffffff ffffffff ffffffff  ................
 20450 ffffffff ffffffff ffffffff 586a8a74  ............Xj.t
 20460 93ca7190 c17190c2 728ebf71 8ebf7290  ..q..q..r..q..r.
 20470 c47293c8 606f8bff ffffffff ffffffff  .r..`o..........
 20480 ffffffff ffffffff ffffffff ffffffff  ................
 20490 ffffffff ffffffff ffffffff ffffffff  ................
 204a0 ffffffff ffffffff ffffffff ffffffff  ................
 204b0 ffffffff ffffffff ffffffff ffffffff  ................
 204c0 ffffffff ffffffff ffffffff ffffffff  ................
 204d0 ffc6c8ca 6f91c94d 6388728f c0718ebe  ....o..Mc.r..q..
 204e0 7391c671 8ebe708d bc728fc0 7594c94d  s..q..p..r..u..M
 204f0 6793d1cf caffffff ffffffff ffffffff  g...............
 20500 ffffffff ffffffff ffffffff ffffffff  ................
 20510 ffffffff ffffffff ff7d828a 6c8dc673  .........}..l..s
 20520 91c47392 c5718fc2 7290c271 8fc17391  ..s..q..r..q..s.
 20530 c46e8ec6 a5aebcff ffffffff ffffffff  .n..............
 20540 ffffffff ffffffff ffffffff ffffffff  ................
 20550 ffffffff ffffffff ffffffff ffffffff  ................
 20560 ffffffff ffffffff ffffffff ffffffff  ................
 20570 ffffffff ffffffff ffffffff ffffffff  ................
 20580 ffffffff ffffffff ffffffff ffffffff  ................
 20590 ffffffff 8e8b8864 82b77390 c2718fbf  .......d..s..q..
 205a0 7391c473 91c3718f c07390c4 7493c766  s..s..q..s..t..f
 205b0 82b35760 6fccc9c4 fffffaff ffffffff  ..W`o...........
 205c0 ffffffff ffffffff ffffffff fffcfaf9  ................
 205d0 e1dfdedd dbd87376 7a6283bb 7492c672  ......svzb..t..r
 205e0 90c37290 c37391c4 7390c372 90c37390  ..r..s..s..r..s.
 205f0 c37797ce 444d5ba6 a9aab7b6 b5ffffff  .w..DM[.........
 20600 ffffffff ffffffff ffffffff ffffffff  ................
 20610 ffffffff ffffffff ffffffff ffffffff  ................
 20620 ffffffff ffffffff ffffffff ffffffff  ................
 20630 ffffffff ffffffff ffffffff ffffffff  ................
 20640 ffffffff ffffffff ffffffff ffffffff  ................
 20650 fffffffd 35486976 94c67391 c57390c5  ....5Hiv..s..s..
 20660 7392c572 8fc1718f c17290c3 7392c474  s..r..q..r..s..t
 20670 92c57494 cc5e7eb2 4a638d5b 6c8b7180  ..t..^~.Jc.[l.q.
 20680 9a5f6166 9697979b a1a78793 9b8b9aa5  ._af............
 20690 95a6b250 575b607e b37593c6 7391c472  ...PW[`~.u..s..r
 206a0 90c3728f c37492c5 7392c473 90c47290  ..r..t..s..s..r.
 206b0 c27392c8 5f6a75af c0c69dab b272797d  .s.._ju......ry}
 206c0 929393f4 f3f2ffff ffffffff ffffffff  ................
 206d0 ffffffff ffffffff ffffffff ffffffff  ................
 206e0 ffffffff ffffffff ffffffff ffffffff  ................
 206f0 ffffffff ffffffff ffffffff ffffffff  ................
 20700 ffffffff ffffffff ffffffff ffffffff  ................
 20710 ffafaca6 6486c076 96c9718d bc718fbe  ....d..v..q..q..
 20720 728fc171 8ebf7190 c1718fc2 7492c572  r..q..q..q..t..r
 20730 8fc37493 c77798d1 51699360 7189808d  ..t..w..Qi.`q...
 20740 98becfdb c9dbe9c8 d8e7c4d6 e6c6d8e7  ................
 20750 cbd8e24b 60817593 c67290c1 7290c174  ...K`.u..r..r..t
 20760 92c67290 c37290c1 7391c472 91c4718e  ..r..r..s..r..q.
 20770 be7695c7 36415855 6584636f 82838a90  .v..6AXUe.co....
 20780 b6c1c572 7c829192 92ffffff ffffffff  ...r|...........
 20790 ffffffff ffffffff ffffffff ffffffff  ................
 207a0 ffffffff ffffffff ffffffff ffffffff  ................
 207b0 ffffffff ffffffff ffffffff ffffffff  ................
 207c0 ffffffff ffffffff ffffffff ffffffff  ................
 207d0 ff979693 80aef881 acf07da4 e47493c6  ..........}..t..
 207e0 708cbb71 8ebf7190 c27390c3 7492c577  p..q..q..s..t..w
 207f0 96cc5a75 a55f6d7b c2cfd7cd ddeac2d5  ..Zu._m{........
 20800 e3c3d4e2 bccfddbe d0dec0d2 e0cbdce8  ................
 20810 707a847c a5e681a8 e882acec 82aced83  pz.|............
 20820 aef083ad ef7b9fdb 7290c473 91c3718e  .....{..r..s..q.
 20830 bd7694c7 48556f6e 85af6b81 aa677eaa  .v..HUon..k..g~.
 20840 4b5b7e74 7f8aaebc c1747a7d fdfbfaff  K[~t.....tz}....
 20850 ffffffff ffffffff ffffffff ffffffff  ................
 20860 ffffffff ffffffff ffffffff ffffffff  ................
 20870 ffffffff ffffffff ffffffff ffffffff  ................
 20880 ffffffff ffffffff ffffffff ffffffff  ................
 20890 ffa4a29e 93b9f89d bbee87af ee81acf0  ................
 208a0 7a9ed970 8dbe718f c27390c3 7898cf4d  z..p..q..s..x..M
 208b0 638793a1 a8d2e2ee c6d5e2b8 cbd9b8cd  c...............
 208c0 dbc2d2e0 b9cddcbb cedcc5d4 e1cadae6  ................
 208d0 637b9d85 b5fe84b0 f482aced 81abeb83  c{..............
 208e0 aef085b2 f485b2f6 7fa6e673 92c67390  ...........s..s.
 208f0 c26c88b5 47556f6e 82ab6b80 a86b80aa  .l..GUon..k..k..
 20900 6c82ae6a 81b15565 819ba7ac 71797ff7  l..j..Ue....qy..
 20910 f5f4ffff ffffffff ffffffff ffffffff  ................
 20920 ffffffff ffffffff ffffffff ffffffff  ................
 20930 ffffffff ffffffff ffffffff ffffffff  ................
 20940 ffffffff ffffffff ffffffff ffffffff  ................
 20950 ffd4d2cd 889fc5bc d3f8a9c2 ec8db1ed  ................
 20960 85b0f47f a5e6718e c17695ca 4c6184a6  ......q..v..La..
 20970 b7bfc8d9 e6c3d3e0 bed0deb5 cadab9cd  ................
 20980 dbc0d1df bed0deb7 ccdbbfd0 decddce6  ................
 20990 5d779c98 befa8eb5 f282aef3 82aef084  ]w..............
 209a0 b0f384b1 f384b0f2 84aef17b a0de7594  ...........{..u.
 209b0 c74f6485 6275996c 81ab6b80 aa6b80aa  .Od.bu.l..k..k..
 209c0 6a7fa96c 81ac6e84 b2546689 88969d78  j..l..n..Tf....x
 209d0 8085ffff ffffffff ffffffff ffffffff  ................
 209e0 ffffffff ffffffff ffffffff ffffffff  ................
 209f0 ffffffff ffffffff ffffffff ffffffff  ................
 20a00 ffffffff ffffffff ffffffff ffffffff  ................
 20a10 ffffffff 738098bd d6feb9cf f3a8c4f1  ....s...........
 20a20 8cb4f58a b5f880a7 e859729e a4b6bfc1  .........Yr.....
 20a30 d4e1c3d3 e1c2d3e0 bdcfddb8 ccdab9cd  ................
 20a40 dcbdcedd bed0deb5 cad9c4d3 e1c4d6e1  ................
 20a50 6981a6b6 d0fbb1c9 f192b8f4 82aff385  i...............
 20a60 b1f284b1 f383b0f3 83aff283 adf07999  ..............y.
 20a70 d03e4e68 6f85b16c 83ae6b82 ad6b80aa  .>Nho..l..k..k..
 20a80 6a81aa6c 80ac6c81 ac6d82ad 576b938e  j..l..l..m..Wk..
 20a90 99a0797b 7cffffff ffffffff ffffffff  ..y{|...........
 20aa0 ffffffff ffffffff ffffffff ffffffff  ................
 20ab0 ffffffff ffffffff ffffffff ffffffff  ................
 20ac0 ffffffff ffffffff ffffffff ffffffff  ................
 20ad0 ffffffff aeafb2a9 c6f4bcd3 f7b2cdf5  ................
 20ae0 91b7f58f b5f586b0 f672818c bfd4e2c5  .........r......
 20af0 d4e1c4d3 e0c1d2e0 bfd1dfbb cedcb7cb  ................
 20b00 dabacddc c2d3e0bf d0debccf dcb8cdd9  ................
 20b10 7288a5b4 d0fdb0cc f4adc9f5 86b2f384  r...............
 20b20 b0f283af f284b1f3 84b0f385 b2f67d9f  ..............}.
 20b30 db394761 5e75a24f 648d566d 986279a8  .9Ga^u.Od.Vm.by.
 20b40 6c83b26f 86b26c82 ae6b80ab 6d81aa53  l..o..l..k..m..S
 20b50 678b838f 96a9a8a8 ffffffff ffffffff  g...............
 20b60 ffffffff ffffffff ffffffff ffffffff  ................
 20b70 ffffffff ffffffff ffffffff ffffffff  ................
 20b80 ffffffff ffffffff ffffffff ffffffff  ................
 20b90 ffffffff ffffff7e 8ea69cc3 ff97bbf5  .......~........
 20ba0 8fb5f594 bbfd637b a3bbcfd9 bdcedcc2  ......c{........
 20bb0 d2dfc2d2 e0c3d4e2 c1d2dfb8 ccdab4c9  ................
 20bc0 d8baccdb becfdcb8 cbd9b1c5 d4b4cad8  ................
 20bd0 8498aba5 c3f6b2cb f4b3cdf4 94b9f582  ................
 20be0 aff283af f183aff1 84b0f387 b5f96588  ..............e.
 20bf0 c37b776f d7d6d4d7 d4cfc4c2 bd9c9b9a  .{wo............
 20c00 5a606d35 46676c85 b67088b7 6c82ab6d  Z`m5Fgl..p..l..m
 20c10 84af5d73 946d797d ffffffff ffffffff  ..]s.my}........
 20c20 ffffffff ffffffff ffffffff ffffffff  ................
 20c30 ffffffff ffffffff ffffffff ffffffff  ................
 20c40 ffffffff ffffffff ffffffff ffffffff  ................
 20c50 ffffffff fffffffe f9f2718f bd92bbff  ..........q.....
 20c60 90b5f493 bbff7482 8ecadfec d3e7f3d7  ......t.........
 20c70 ebf7d8ec f7daedf8 d5eaf6cc e4f1c9e0  ................
 20c80 eebdd3e2 b4cad8af c4d3afc4 d4b0c5d6  ................
 20c90 b1c4ce6a 8bc0abc6 f3b4cef5 94baf482  ...j............
 20ca0 b0f284b0 f282aced 82adee88 b8ff5867  ..............Xg
 20cb0 80ffffff ffffffff ffffffff ffffffff  ................
 20cc0 fffffffa f7f37475 76415276 728cbd6f  ......tuvARvr..o
 20cd0 89b5718f c3758aa0 a1a09dff ffffffff  ..q..u..........
 20ce0 ffffffff ffffffff ffffffff ffffffff  ................
 20cf0 ffffffff ffffffff ffffffff ffffffff  ................
 20d00 ffffffff ffffffff ffffffff ffffffff  ................
 20d10 ffffffff ffffffff ffffefeb e46885b6  .............h..
 20d20 97c0ff67 86bdc9dd e3dcf1fe dcf0fddd  ...g............
 20d30 f0fcdff0 fcdef0fc ddf0fcdc f0fcd1e9  ................
 20d40 f5c9e3f2 c8e2f1c4 ddecbdd5 e4b5ccda  ................
 20d50 bbcfdb7c 8fa386b3 fa91b8f5 85b1f384  ...|............
 20d60 b0f385b0 f282aced 84aff158 80bdbbb7  ...........X....
 20d70 afffffff ffffffff ffffffff ffffffff  ................
 20d80 ffffffff ffffffff ffe5e3dd 3c465b72  ............<F[r
 20d90 8fc2718e bd6b8bc0 5a5e5eff ffffffff  ..q..k..Z^^.....
 20da0 ffffffff ffffffff ffffffff ffffffff  ................
 20db0 ffffffff ffffffff ffffffff ffffffff  ................
 20dc0 ffffffff ffffffff ffffffff ffffffff  ................
 20dd0 ffffffff ffffffff ffffffff fff9f5ee  ................
 20de0 5b6e8e69 84ade9fd ffdcf0fc dbeffcde  [n.i............
 20df0 f0fbddf0 fcdef0fc d8ecf8db eefac8e3  ................
 20e00 f1c9e4f2 cae4f2ca e6f4cae5 f3cbe4f1  ................
 20e10 d1e8f5b2 bec35374 a885b4f9 84b0f285  ......St........
 20e20 b1f383b0 f383adef 83b2fa60 666fffff  ...........`fo..
 20e30 ffffffff ffffffff ffffffff ffffffff  ................
 20e40 ffffffff ffffffff ffffffff fffff93a  ...............:
 20e50 45597595 c87695c8 324765f8 f6f2ffff  EYu..v..2Ge.....
 20e60 ffffffff ffffffff ffffffff ffffffff  ................
 20e70 ffffffff ffffffff ffffffff ffffffff  ................
 20e80 ffffffff ffffffff ffffffff ffffffff  ................
 20e90 ffffffff ffffffff ffffffff ffffffff  ................
 20ea0 ffffff80 878ae6fa ffddf0fb ddf0fbdd  ................
 20eb0 f0fcdef0 fbd5ebf6 d0e9f6d3 eaf6c8e3  ................
 20ec0 f1c9e4f2 cae3f1c9 e4f2cce6 f2d6edf9  ................
 20ed0 dff6ff9b aaae82b1 fc84b1f3 85b1f385  ................
 20ee0 b1f284b1 f388b7fd 4b6691ff fbf4ffff  ........Kf......
 20ef0 ffffffff ffffffff ffffffff ffffffff  ................
 20f00 ffffffff ffffffff ffffffff ffffffed  ................
 20f10 eae3445b 817594c8 6c96d9ab a8a2ffff  ..D[.u..l.......
 20f20 ffffffff ffffffff ffffffff ffffffff  ................
 20f30 ffffffff ffffffff ffffffff ffffffff  ................
 20f40 ffffffff ffffffff ffffffff ffffffff  ................
 20f50 ffffffff ffffffff ffffffff ffffffff  ................
 20f60 ffffffb2 babee3f5 ffdef0fc ddf0fbdd  ................
 20f70 f0fcd8ec f8c8e4f2 daedf9cc e5f3cae3  ................
 20f80 f1cae3f1 c9e3f1ca e4f1d2eb f8d6ecf9  ................
 20f90 dcf4ff8a 9eb183b2 fa85b1f2 85b1f384  ................
 20fa0 b1f284b2 f572a2ea a7a5a2ff ffffffff  .....r..........
 20fb0 ffffffff ffffffff ffffffff ffffffff  ................
 20fc0 ffffffff ffffffff ffffffff ffffffff  ................
 20fd0 ffff898a 8a6b8dc6 84b4ff86 8e98ffff  .....k..........
 20fe0 ffffffff ffffffff ffffffff ffffffff  ................
 20ff0 ffffffff ffffffff ffffffff ffffffff  ................
 21000 ffffffff ffffffff ffffffff ffffffff  ................
 21010 ffffffff ffffffff ffffffff ffffffff  ................
 21020 ffffffb0 b9bee2f5 ffddf0fb dcf0fcdc  ................
 21030 effacae5 f4d8ecf8 d1e9f5cc e6f4cbe6  ................
 21040 f3c9e3f1 c9e3f1cd e6f4d4ec f8d0e9f6  ................
 21050 def6ff6f 87a684b4 fa85b1f2 85b1f285  ...o............
 21060 b1f287b8 ff586a83 ffffffff ffffffff  .....Xj.........
 21070 ffffffff ffffffff ffffffff ffffffff  ................
 21080 ffffffff ffffffff ffffffff ffffffff  ................
 21090 ffffffff ff496187 88baff7f 8da2ffff  .....Ia.........
 210a0 ffffffff ffffffff ffffffff ffffffff  ................
 210b0 ffffffff ffffffff ffffffff ffffffff  ................
 210c0 ffffffff ffffffff ffffffff ffffffff  ................
 210d0 ffffffff ffffffff ffffffff ffffffff  ................
 210e0 ffffff8f 989ce5f8 ffdff0fb dff0fbd4  ................
 210f0 ecf8d8ec f9d6ecf8 cee8f6cf e8f5cbe5  ................
 21100 f3c9e3f1 cbe4f1d1 e9f7cee8 f5cfe9f6  ................
 21110 d9eff656 75a487b5 fa85b1f3 85b1f287  ...Vu...........
 21120 b5f95d83 bdeae4dc ffffffff ffffffff  ..].............
 21130 ffffffff ffffffff ffffffff ffffffff  ................
 21140 ffffffff ffffffff ffffffff ffffffff  ................
 21150 ffffffff ff908f8e 7eb2ff7b 8ca4ffff  ........~..{....
 21160 ffffffff ffffffff ffffffff ffffffff  ................
 21170 ffffffff ffffffff ffffffff ffffffff  ................
 21180 ffffffff ffffffff ffffffff ffffffff  ................
 21190 ffffffff ffffffff ffffffff ffffffff  ................
 211a0 ffffff90 999de4f8 ffddf0fb ddeffade  ................
 211b0 f0fbd7ec f9d0e9f7 d1eaf7ce e8f4cae4  ................
 211c0 f2cbe4f1 cde7f5ce e7f5cde7 f4d6effd  ................
 211d0 9cacb073 9fe286b2 f583b0f2 84b1f47c  ...s...........|
 211e0 adf7999b 9fffffff ffffffff ffffffff  ................
 211f0 ffffffff ffffffff ffffffff ffffffff  ................
 21200 ffffffff ffffffff ffffffff ffffffff  ................
 21210 ffffffff fffff8ee 557bb889 94aaffff  ........U{......
 21220 ffffffff ffffffff ffffffff ffffffff  ................
 21230 ffffffff ffffffff ffffffff ffffffff  ................
 21240 ffffffff ffffffff ffffffff ffffffff  ................
 21250 ffffffff ffffffff ffffffff ffffffff  ................
 21260 ffffff9d a4a7e2f7 ffdeeffb ddf0fbd5  ................
 21270 ecf8d1ea f7d4ebf9 d0e9f6cb e6f3cbe5  ................
 21280 f3cde7f5 cce6f4cb e6f3cee8 f5ddf6ff  ................
 21290 6e829586 b5fd83af f283aeef 86b5fe58  n..............X
 212a0 6f93ffff ffffffff ffffffff ffffffff  o...............
 212b0 ffffffff ffffffff ffffffff ffffffff  ................
 212c0 ffffffff ffffffff ffffffff ffffffff  ................
 212d0 fffffaee f3bad3e9 5383b04c 87cc7a92  ........S..L..z.
 212e0 ddc4c2db ffffffff ffffffff ffffffff  ................
 212f0 ffffffff ffffffff ffffffff ffffffff  ................
 21300 ffffffff ffffffff ffffffff ffffffff  ................
 21310 ffffffff ffffffff ffffffff ffffffff  ................
 21320 ffffffa5 a9aadcf4 ffdceffa d3eaf6d0  ................
 21330 eaf7d3eb f8d2ebf8 cde6f4cc e6f4cee8  ................
 21340 f6cce5f3 c9e4f2cd e6f3d5ed f9d6edf5  ................
 21350 4e699489 b8ff7ea5 e37898ce 526e9cec  Ni....~..x..Rn..
 21360 e7e0ffff ffffffff ffffffff ffffffff  ................
 21370 ffffffff ffffffff ffffffff ffffffff  ................
 21380 ffffffff ffffffff ffffffff ffffffb3  ................
 21390 aed052b6 e780edff 7ac0dd6d d3f63d88  ..R.....z..m..=.
 213a0 fa427af4 3355c0ff ffffffff ffffffff  .Bz.3U..........
 213b0 ffffffff ffffffff ffffffff ffffffff  ................
 213c0 ffffffff ffffffff 757c8880 8081d4d0  ........u|......
 213d0 c9d7d4cf c8c7c4c2 bfbbc8c6 c2dbd7d2  ................
 213e0 f3f0eab4 b2aed9f4 ffd0e9f6 d0e9f7d3  ................
 213f0 ebf7d3eb f8cfe8f6 cee7f4d0 e9f7cde6  ................
 21400 f4c9e4f1 cbe4f1d5 ecf8e1f8 ff7b8a91  .............{..
 21410 82b2fb7f a5e37592 c56683b2 7e7b78d4  ......u..f..~{x.
 21420 d0cabbb9 b5d3d0ca f8f5f1ff ffffffff  ................
 21430 ffffffff ffffffff ffffffff ffffffff  ................
 21440 ffffffff ffffffff ffffffff ffffff6c  ...............l
 21450 7cc96fc9 ff8ee8fe 6be3ff9c edff427e  |.o.....k.....B~
 21460 f43b75f6 6a7dcfff ffffffff ffffffff  .;u.j}..........
 21470 ffffffff ffffffff ffffffff ffffffff  ................
 21480 ffffffff ffffffff 8e9aae87 b5fb6891  ..............h.
 21490 d26082b9 5f7eaf5e 7db05e7c b15875a7  .`.._~.^}.^|.Xu.
 214a0 526e9d26 3551c1d8 e1d3ecfb d3eaf7d4  Rn.&5Q..........
 214b0 ecf9d0e9 f6cfe8f6 d1eaf7ce e8f5cae5  ................
 214c0 f2cae4f2 d4ebf7da f0fce0f6 fe4a6389  .............Jc.
 214d0 7ca3e349 5a784f62 854c5f7f 5c77a45c  |..IZxOb.L_.\w.\
 214e0 7aab5e7b ac526c99 41577d4f 5f7a7f84  z.^{.Rl.AW}O_z..
 214f0 8ed8d5cf ffffffff ffffffff ffffffff  ................
 21500 ffffffff ffffffff ffffffff d2c5da5b  ...............[
 21510 b4ea73c4 ff73e1fe 78e2fe77 e9ff6bab  ..s..s..x..w..k.
 21520 f83169f4 3569dcff fff8ffff ffffffff  .1i.5i..........
 21530 ffffffff ffffffff ffffffff ffffffff  ................
 21540 ffffffff fffffcf2 60779c82 aef383ad  ........`w......
 21550 ee84aef1 84aff083 adef83ae f083aced  ................
 21560 7fa7e67e a5e65158 56def8ff d4ecf9d1  ...~..QXV.......
 21570 eaf7cfe9 f6d2ebf7 d1e9f7cc e6f4cce5  ................
 21580 f3d3ebf7 d8eefae6 fdff707e 8684aff8  ..........p~....
 21590 6688ba87 b4f889b7 fc8ab8ff 85b1f484  f...............
 215a0 aef284af f082abec 7b9fda4c 6083495f  ........{..L`.I_
 215b0 854c6898 4b5464a2 a09bfcfb f9ffffff  .Lh.KTd.........
 215c0 ffffffff ffffffff ffa5a2c7 4db9e46c  ............M..l
 215d0 eaff6ddb ff5fbdfb 9eebff61 e3ff8dd2  ..m.._.....a....
 215e0 fc3f79f3 2e74f6aa b6dcffff ffffffff  .?y..t..........
 215f0 ffffffff ffffffff ffffffff ffffffff  ................
 21600 ffffe6e2 dd526d95 84b2f982 abed82ab  .....Rm.........
 21610 ec82aaeb 81abec82 adef84b0 f385b2f4  ................
 21620 84b2f58c bdff2e3c 53d8f1fb d4ecf9d1  .......<S.......
 21630 eaf7d3eb f8d3ebf8 cfe9f6cf e8f5d5ec  ................
 21640 f9d6edfa dbf3ffbb cccf5b7e b586aff2  ..........[~....
 21650 85aef084 b0f283af f182aced 85b2f582  ................
 21660 acec81ab ec82abec 83b0f397 bffe556a  ..............Uj
 21670 8c7593c7 7594cb68 90d37d85 90ffffff  .u..u..h..}.....
 21680 ffffffff ffffdcd3 e348a3dc 6ee6ff6a  .........H..n..j
 21690 e1fe6de9 ff458af5 a7ddfd75 e6fe7ae2  ..m..E.....u..z.
 216a0 fe6896f5 3c8ffc5d a2d9ffff ffffffff  .h..<..]........
 216b0 ffffffff ffffffff ffffffff ffffffca  ................
 216c0 c9c74966 9482b4ff 85b1f481 aaeb82ab  ..If............
 216d0 ec81aaeb 82adee83 aff183af f385b1f3  ................
 216e0 84b1f387 b6fa5c80 b7889aa5 d9f3ffd4  ......\.........
 216f0 ebf7d7ed f9d4ecf8 d4ebf8db eefadaef  ................
 21700 fbd4ecf9 dff6fd4e 66888ab9 ff81aaeb  .......Nf.......
 21710 82abeb84 aff183af f181a9ea 81abed84  ................
 21720 b1f381ab eb81aaeb 85b1f474 9bd7718e  ...........t..q.
 21730 c17391c4 7493c65b 76a3a09e 9cffffff  .s..t..[v.......
 21740 ffffffff ffffe6d9 e754caf2 6cddff6b  .........T..l..k
 21750 e6fe74e9 ff67b1f8 728af07f e6ff87e8  ..t..g..r.......
 21760 ff8bc0fb 5d79d55b c5e8e0d7 e6ffffff  ....]y.[........
 21770 ffffffff ffffffff ffffffff ffffffff  ................
 21780 ffffebe7 e069717f 6794d981 b0f881ae  .....iq.g.......
 21790 f485aff2 84b0f384 b0f384b1 f385b1f2  ................
 217a0 85b1f389 b7fb5672 9e6080b1 d8edf3dd  ......Vr.`......
 217b0 f0fcdef0 fcddf0fc daeefadf f1fcd6ed  ................
 217c0 f9e5ffff 5f707f83 b2fb85b2 f483aef0  ...._p..........
 217d0 82acee84 aff284b0 f381abeb 81abeb84  ................
 217e0 b0f283ae f081aced 84b0f285 b4f784af  ................
 217f0 f27492c6 647da84e 6d9f2d49 78c5c3c0  .t..d}.Nm.-Ix...
 21800 ffffffff ffffffff ff74abd5 64ddff5c  .........t..d..\
 21810 abfa6fed ff6fbbfa 3a70f152 a7f988da  ..o..o..:p.R....
 21820 feacefff 9195c17e 8ec0eeed f4ffffff  .......~........
 21830 ffffffff ffffffff ffffffff ffffffff  ................
 21840 ffffffff ffc1c0bf cbc6be7d 838d7680  ...........}..v.
 21850 8e4f70a5 80b0f989 b8fd86b1 f485b1f3  .Op.............
 21860 84b1f287 b5f96081 b27eacf4 7c91a8e5  ......`..~..|...
 21870 fdffd0e5 f2c4dbe8 bed5e4c8 dbe8d3eb  ................
 21880 fa78888f 76a2ea86 b5f884b0 f384b0f2  .x..v...........
 21890 83b0f285 b1f383b0 f383b0f2 83aef184  ................
 218a0 b1f383ae f083aef0 86b4f984 b5fe628a  ..............b.
 218b0 c77dabf5 6183bddd d8d0ffff ffffffff  .}..a...........
 218c0 ffffffff ffffffff fffef0f4 5ec4e342  ............^..B
 218d0 86f754b0 fa5f8af1 4679f23b 5df060b7  ..T.._..Fy.;].`.
 218e0 faa1f0ff 95c4e4cf c6dbffff ffffffff  ................
 218f0 ffffffff ffffffff ffffffff ffffffff  ................
 21900 ffffffff ffffffff ffffffff ffffffff  ................
 21910 fff7f2eb 80838744 608b7faf f887b7fd  .......D`.......
 21920 86b3f585 b1f5779f db6f95ce 76a0e479  ......w..o..v..y
 21930 8996bed5 e3b1c7d6 c5d5e2c6 dbe96874  ..............ht
 21940 7b5a74a4 7797cd7e a3e184b1 f483b0f2  {Zt.w..~........
 21950 83aff285 b1f383b1 f284b0f3 84b0f386  ................
 21960 b3f783b3 fa6d99dd 526a9089 8c92e6e0  .....m..Rj......
 21970 d8aeb0b3 6f82a06d 7581ffff ffffffff  ....o..mu.......
 21980 ffffffff ffffffff ffffffff b8bada67  ...............g
 21990 9ff84281 f4397ff4 5a87f136 52ef55a4  ..B..9..Z..6R.U.
 219a0 f8a9efff 5ddafdca ccdfffff ffffffff  ....]...........
 219b0 ffffffff ffffffff ffffffff ffffffff  ................
 219c0 ffffffff ffffffff ffffffff ffffffff  ................
 219d0 ffffffff ffffffff fffb8b8c 8c48628a  .............Hb.
 219e0 6f9ce187 b7ff87b3 f77193c9 7491c166  o........q..t..f
 219f0 83b75f72 86b0bdc5 919ea448 5563607c  .._r.......HUc`|
 21a00 aa7492c3 718dbc70 8cba799c d584b1f4  .t..q..p..y.....
 21a10 84b1f384 b1f384b2 f586b4fa 82b5fe60  ...............`
 21a20 89c97383 9abebbb6 ffffffff ffffffff  ..s.............
 21a30 ffffffff ffffffff ffffffff ffffffff  ................
 21a40 ffffffff ffffffff ffffffff fffcf752  ...............R
 21a50 6dda628b f24682f3 5189f335 5ff15ba1  m.b..F..Q..5_.[.
 21a60 f887eeff 62b5fe58 91d0ffff ffffffff  ....b..X........
 21a70 ffffffff ffffffff ffffffff ffffffff  ................
 21a80 ffffffff ffffffff ffffffff ffffffff  ................
 21a90 ffffffff ffffffff ffffffff ffffffff  ................
 21aa0 beb9b361 728a6086 c37a99cd 718ebe73  ...ar.`..z..q..s
 21ab0 90c06d8b c1506893 4e648c76 94cb7390  ..m..Ph.Nd.v..s.
 21ac0 c0708dbe 708dbd70 8ebd708d be7a9eda  .p..p..p..p..z..
 21ad0 88b6fb84 b5fc73a3 eb58759f 8e96a2ef  ......s..Xu.....
 21ae0 e9e1ffff ffffffff ffffffff ffffffff  ................
 21af0 ffffffff ffffffff ffffffff ffffffff  ................
 21b00 ffffffff ffffffff ffffffff ffffff31  ...............1
 21b10 5ed46b90 f45f89f1 648cf03f 73f262c6  ^.k.._..d..?s.b.
 21b20 fb59b5fb 4480f955 65b8ffff ffffffff  .Y..D..Ue.......
 21b30 ffffffff ffffffff ffffffff ffffffff  ................
 21b40 ffffffff ffffffff ffffffff ffffffff  ................
 21b50 ffffffff ffffffff ffffffff ffffffff  ................
 21b60 ffffffff ffffc9c3 b82e3b53 7695c773  ..........;Sv..s
 21b70 93c66685 b66f8fc4 7291c476 94c87390  ..f..o..r..v..s.
 21b80 c0708dbc 718ebd71 8ebd7491 c4708ec3  .p..q..q..t..p..
 21b90 5677ab75 869ec0bd b8ffffff ffffffff  Vw.u............
 21ba0 ffffffff ffffffff ffffffff ffffffff  ................
 21bb0 ffffffff ffffffff ffffffff ffffffff  ................
 21bc0 ffffffff ffffffff ffffffff fffffc30  ...............0
 21bd0 71df61a0 f8808dee 5f89f147 7bf274da  q.a....._..G{.t.
 21be0 ff3681f8 777cbfff ffffffff ffffffff  .6..w|..........
 21bf0 ffffffff ffffffff ffffffff ffffffff  ................
 21c00 ffffffff ffffffff ffffffff ffffffff  ................
 21c10 ffffffff ffffffff ffffffff ffffffff  ................
 21c20 cecbc671 7a8b516a 937397ca 4b628457  ...qz.Qj.s..Kb.W
 21c30 5f747173 88777a92 57658059 78a67898  _tqs.wz.We.Yx.x.
 21c40 d0728fbf 718ebd72 90c36f8e c4444a53  .r..q..r..o..DJS
 21c50 ffffffff ffffffff ffffffff ffffffff  ................
 21c60 ffffffff ffffffff ffffffff ffffffff  ................
 21c70 ffffffff ffffffff ffffffff ffffffff  ................
 21c80 ffffffff ffffffff ffffffff fffffd54  ...............T
 21c90 c4ea72d8 ff70b0fb 4a7ef33a 79f36bad  ..r..p..J~.:y.k.
 21ca0 fc6176cd ffffffff ffffffff ffffffff  .av.............
 21cb0 ffffffff ffffffff ffffffff ffffffff  ................
 21cc0 ffffffff ffffffff ffffffff ffffffff  ................
 21cd0 ffffffff ffffffff ffffcdc9 c35c6a82  .............\j.
 21ce0 5c7db56e 94cf5d6a 85675172 d0bdcdd4  \}.n..]j.gQr....
 21cf0 c3d5cfbe d1cebccf d4c1d4b1 9fac5158  ..............QX
 21d00 6d6c8ec3 7391c373 90c37493 ca586a89  ml..s..s..t..Xj.
 21d10 ffffffff ffffffff ffffffff ffffffff  ................
 21d20 ffffffff ffffffff ffffffff ffffffff  ................
 21d30 ffffffff ffffffff ffffffff ffffffff  ................
 21d40 ffffffff ffffffff ffffffff ffffff35  ...............5
 21d50 5ca470ea ff4b9ed9 6b87ee3d 7cf4377e  \.p..K..k..=|.7~
 21d60 f7a5aedc ffffffff ffffffff ffffffff  ................
 21d70 ffffffff ffffffff ffffffff ffffffff  ................
 21d80 ffffffff ffffffff ffffffff ffffffff  ................
 21d90 ffffffff ffffff67 6e7b5777 ab799ed7  .......gn{Ww.y..
 21da0 58729a64 5176997a 9a916fa5 9274a4b4  Xr.dQv.z..o..t..
 21db0 a0bcc6b7 cac9bbcd c8bacccb bccfd9c7  ................
 21dc0 d84d4a4a 7193c772 90c37391 c55976a8  .MJJq..r..s..Yv.
 21dd0 cccac5ff ffffffff ffffffff ffffffff  ................
 21de0 ffffffff ffffffff ffffffff ffffffff  ................
 21df0 ffffffff ffffffff ffffffff ffffffff  ................
 21e00 ffffffff ffffffff ffffffff ffffffd2  ................
 21e10 c3da6bc8 ed8aa2c5 3974e868 8ef22768  ..k.....9t.h..'h
 21e20 f4c0c3df ffffffff ffffffff ffffffff  ................
 21e30 ffffffff ffffffff ffffffff ffffffff  ................
 21e40 ffffffff ffffffff ffffffff ffffffff  ................
 21e50 fff1ede6 4c5d7b70 93cf7b9f da526181  ....L]{p..{..Ra.
 21e60 78607396 70a08f69 9b906b9b 936ea18f  x`s.p..i..k..n..
 21e70 6ba09473 a6a085af ab94b6b3 9fbcb7a3  k..s............
 21e80 c2a28a95 37395179 9ad0728f c06f8fc3  ....79Qy..r..o..
 21e90 828994ff ffffffff ffffffff ffffffff  ................
 21ea0 ffffffff ffffffff ffffffff ffffffff  ................
 21eb0 ffffffff ffffffff ffffffff ffffffff  ................
 21ec0 ffffffff ffffffff ffffffff ffffffff  ................
 21ed0 ffff779f cdd5cedb 3468dc3d 7df54378  ..w.....4h.=}.Cx
 21ee0 f1d2d1e2 ffffffff ffffffff ffffffff  ................
 21ef0 ffffffff ffffffff ffffffff ffffffff  ................
 21f00 ffffffff ffffffff ffffffff fffff8f4  ................
 21f10 ee485f85 789ad566 799b544e 4d4c3840  .H_.x..fy.TNML8@
 21f20 585e7859 729a6586 b46281ad 55668a5b  X^xYr.e..b..Uf.[
 21f30 5e805d4d 6e6d4c71 926b9f90 6ca28f6d  ^.]MnmLq.k..l..m
 21f40 a29170a7 90689c35 4b6b7896 ca7291c1  ..p..h.5Kkx..r..
 21f50 4a628afb f8f2ffff ffffffff ffffffff  Jb..............
 21f60 ffffffff ffffffff ffffffff ffffffff  ................
 21f70 ffffffff ffffffff ffffffff ffffffff  ................
 21f80 ffffffff ffffffff ffffffff ffffffff  ................
 21f90 ffffc8c4 dcffffff 5a7ed931 6af63c75  ........Z~.1j.<u
 21fa0 ece7e1e6 ffffffff ffffffff ffffffff  ................
 21fb0 ffffffff ffffffff ffffffff ffffffff  ................
 21fc0 ffffffff ffffffff ffffffff ffff6f7c  ..............o|
 21fd0 937698d3 6381b182 78715f72 927eabee  .v..c...xq_r.~..
 21fe0 89b8fe85 b1f684af f285b0f3 86b2f685  ................
 21ff0 b4f684b3 f6719bd3 4d648955 5272604a  .....q..Md.URr`J
 22000 6a815c8b 7c72789c 86756384 b8728fc0  j.\.|rx..uc..r..
 22010 6a8bc198 9a9effff ffffffff ffffffff  j...............
 22020 ffffffff ffffffff ffffffff ffffffff  ................
 22030 ffffffff ffffffff ffffffff ffffffff  ................
 22040 ffffffff ffffffff ffffffff ffffffff  ................
 22050 ffffffff ffffffff 8e9dda39 79f91d47  ...........9y..G
 22060 cdf0eced ffffffff ffffffff ffffffff  ................
 22070 ffffffff ffffffff ffffffff ffffffff  ................
 22080 ffffffff ffffffff ffffffed eae55370  ..............Sp
 22090 a2576d92 556f9881 b1f988b8 ff87b4f8  .Wm.Uo..........
 220a0 6889bc82 a8e482ac ed81abeb 83acee73  h..............s
 220b0 97cf7ca6 e388b5f9 89b8fe87 b9ff7da9  ..|...........}.
 220c0 e7536f97 63748d86 7b773039 527a99cd  .So.ct..{w09Rz..
 220d0 7291c345 556dffff ffffffff ffffffff  r..EUm..........
 220e0 ffffffff ffffffff ffffffff ffffffff  ................
 220f0 ffffffff ffffffff ffffffff ffffffff  ................
 22100 ffffffff ffffffff ffffffff ffffffff  ................
 22110 ffffffff ffffffff a3afe040 7df18083  ...........@}...
 22120 b8fdfbfb ffffffff ffffffff ffffffff  ................
 22130 ffffffff ffffffff ffffffff ffffffff  ................
 22140 ffffffff ffffffff ffffffee ece65b77  ..............[w
 22150 a86586b9 8bbbff84 b2f484b1 f383aff2  .e..............
 22160 8cb2ee94 b9f282af f283aef0 82acec7e  ...............~
 22170 a7e67da6 e585b2f4 85b1f385 b1f386b3  ..}.............
 22180 f785b1f5 7697cf74 97d0546b 90597096  ....v..t..Tk.Yp.
 22190 7795c746 608bf0ed e9ffffff ffffffff  w..F`...........
 221a0 ffffffff ffffffff ffffffff ffffffff  ................
 221b0 ffffffff ffffffff ffffffff ffffffff  ................
 221c0 ffffffff ffffffff ffffffff ffffffff  ................
 221d0 ffffffff ffffffff ced2ea65 73b8ffff  ...........es...
 221e0 ffffffff ffffffff ffffffff ffffffff  ................
 221f0 ffffffff ffffffff ffffffff ffffffff  ................
 22200 ffffffff ffffffff ffffffff ffff6880  ..............h.
 22210 a687b4fa 87b4f886 b4f784b0 f282acec  ................
 22220 82acec8b b2f083b0 f384b0f3 83aff184  ................
 22230 b0f285b1 f385b1f3 85b1f285 b0f384b1  ................
 22240 f386b3f7 7ea2de72 8fc17797 cb6984b3  ....~..r..w..i..
 22250 7391c467 88bfc5c2 bdffffff ffffffff  s..g............
 22260 ffffffff ffffffff ffffffff ffffffff  ................
 22270 ffffffff ffffffff ffffffff ffffffff  ................
 22280 ffffffff ffffffff ffffffff ffffffff  ................
 22290 ffffffff ffffffff fbfafbf2 f0f5ffff  ................
 222a0 ffffffff ffffffff ffffffff ffffffff  ................
 222b0 ffffffff ffffffff ffffffff ffffffff  ................
 222c0 ffffffff ffffffff ffffffff ffff8490  ................
 222d0 a185b5ff 6d97da74 99d184b1 f481abeb  ....m..t........
 222e0 81abeb81 abed84af f284b1f3 84b1f385  ................
 222f0 b0f384b1 f383b1f3 84b0f385 b1f383ae  ................
 22300 f186b3f9 83b3ff7a 9fde7593 c67492c5  .......z..u..t..
 22310 7290c367 87bbaeab a6ffffff ffffffff  r..g............
 22320 ffffffff ffffffff ffffffff ffffffff  ................
 22330 ffffffff ffffffff ffffffff ffffffff  ................
 22340 ffffffff ffffffff ffffffff ffffffff  ................
 22350 ffffffff ffffffff ffffffff ffffffff  ................
 22360 ffffffff ffffffff ffffffff ffffffff  ................
 22370 ffffffff ffffffff ffffffff ffffffff  ................
 22380 ffffffff ffffffff ffffffff ffffbdc0  ................
 22390 c4536785 7f570067 675187b8 ff81abec  .Sg..W.ggQ......
 223a0 81abeb81 abec82af f185b0f3 85b1f283  ................
 223b0 b0f283b0 f384aff2 83b0f384 b1f386b3  ................
 223c0 f9556e8f 7e6b2c61 6c745d7d ba7798d2  .Un.~k,alt]}.w..
 223d0 7493c75c 78a8c6c3 beffffff ffffffff  t..\x...........
 223e0 ffffffff ffffffff ffffffff ffffffff  ................
 223f0 ffffffff ffffffff ffffffff ffffffff  ................
 22400 ffffffff ffffffff ffffffff ffffffff  ................
 22410 ffffffff ffffffff ffffffff ffffffff  ................
 22420 ffffffff ffffffff ffffffff ffffffff  ................
 22430 ffffffff ffffffff ffffffff ffffffff  ................
 22440 ffffffff ffffffff ffffffff ffffe5e7  ................
 22450 ea74633a 5b45005e 665e89ba ff83aef0  .tc:[E.^f^......
 22460 81abec81 acec82ae ef84b0f3 85b1f383  ................
 22470 b1f384b0 f383aef1 81abec83 aff188b9  ................
 22480 ff5a5735 b19641ac 9135785b 00565e64  .ZW5..A..5x[.V^d
 22490 7798d440 5983f6f3 efffffff ffffffff  w..@Y...........
 224a0 ffffffff ffffffff ffffffff ffffffff  ................
 224b0 ffffffff ffffffff ffffffff ffffffff  ................
 224c0 ffffffff ffffffff ffffffff ffffffff  ................
 224d0 ffffffff ffffffff ffffffff ffffffff  ................
 224e0 ffffffff ffffffff ffffffff ffffffff  ................
 224f0 ffffffff ffffffff ffffffff ffffffff  ................
 22500 ffffffff ffffffff ffffffff ffffe8e9  ................
 22510 ef594912 03000042 55748bba ff84b0f2  .YI....BUt......
 22520 82aef083 acee82ad ee83b0f3 85b1f284  ................
 22530 b1f383b1 f482adf0 81aaeb81 aaec88ba  ................
 22540 ff55470b 76600b30 2d2b8771 2386722e  .UG.v`.0-+.q#.r.
 22550 789ada40 5476ffff ffffffff ffffffff  x..@Tv..........
 22560 ffffffff ffffffff ffffffff ffffffff  ................
 22570 ffffffff ffffffff ffffffff ffffffff  ................
 22580 ffffffff ffffffff ffffffff ffffffff  ................
 22590 ffffffff ffffffff ffffffff ffffffff  ................
 225a0 ffffffff ffffffff ffffffff ffffffff  ................
 225b0 ffffffff ffffffff ffffffff ffffffff  ................
 225c0 ffffffff ffffffff ffffffff ffffd7d9  ................
 225d0 de382500 7d737063 7ba287b5 fb84b0f2  .8%.}spc{.......
 225e0 84b0f282 aff182ae f183b0f1 84b0f384  ................
 225f0 b1f285b1 f384b0f3 82abed81 aaed8abb  ................
 22600 ff32290b 2c230211 1011624f 08736222  .2).,#....bO.sb"
 22610 6e92d374 8094ffff ffffffff ffffffff  n..t............
 22620 ffffffff ffffffff ffffffff ffffffff  ................
 22630 ffffffff ffffffff ffffffff ffffffff  ................
 22640 ffffffff ffffffff ffffffff ffffffff  ................
 22650 ffffffff ffffffff ffffffff ffffffff  ................
 22660 ffffffff ffffffff ffffffff ffffffff  ................
 22670 ffffffff ffffffff ffffffff ffffffff  ................
 22680 ffffffff ffffffff ffffffff fffff1f2  ................
 22690 f7231200 ffffff5e 7caa85b4 f983aff2  .#.....^|.......
 226a0 83aff283 b0f283b0 f284b0f2 84aff284  ................
 226b0 b0f283af f184b0f1 85b1f484 b0f38dbe  ................
 226c0 ff020000 8075701e 1a18614c 00454127  .....up...aL.EA'
 226d0 7297d8a4 a9b2ffff ffffffff ffffffff  r...............
 226e0 ffffffff ffffffff ffffffff ffffffff  ................
 226f0 ffffffff ffffffff ffffffff ffffffff  ................
 22700 ffffffff ffffffff ffffffff ffffffff  ................
 22710 ffffffff ffffffff ffffffff ffffffff  ................
 22720 ffffffff ffffffff ffffffff ffffffff  ................
 22730 ffffffff ffffffff ffffffff ffffffff  ................
 22740 ffffffff ffffffff ffffffff ffffffff  ................
 22750 ff16110f fff8ef66 90cf87b3 f781aced  .......f........
 22760 82acec82 adee83b0 f284b0f1 83b0f182  ................
 22770 aff181aa eb81aaea 82abec85 b1f485b5  ................
 22780 fd312a24 ffffff6a 605a1812 013d4e6c  .1*$...j`Z...=Nl
 22790 6687bfc0 bdb9ffff ffffffff ffffffff  f...............
 227a0 ffffffff ffffffff ffffffff ffffffff  ................
 227b0 ffffffff ffffffff ffffffff ffffffff  ................
 227c0 ffffffff ffffffff ffffffff ffffffff  ................
 227d0 ffffffff ffffffff ffffffff ffffffff  ................
 227e0 ffffffff ffffffff ffffffff ffffffff  ................
 227f0 ffffffff ffffffff ffffffff ffffffff  ................
 22800 ffffffff ffffffff ffffffff ffffffff  ................
 22810 ff4e4944 c0b7b38c b9fd7ba1 dc82aced  .NID......{.....
 22820 81aaeb81 aaeb82ad ee84b0f2 84b0f383  ................
 22830 aef081aa eb82acec 82abec85 aff178a1  ..............x.
 22840 e2787577 ffffff7c 77730300 006f8ec3  .xuw...|ws...o..
 22850 4f6893ff fffeffff ffffffff ffffffff  Oh..............
 22860 ffffffff ffffffff ffffffff ffffffff  ................
 22870 ffffffff ffffffff ffffffff ffffffff  ................
 22880 ffffffff ffffffff ffffffff ffffffff  ................
 22890 ffffffff ffffffff ffffffff ffffffff  ................
 228a0 ffffffff ffffffff ffffffff ffffffff  ................
 228b0 ffffffff ffffffff ffffffff ffffffff  ................
 228c0 ffffffff ffffffff ffffffff ffffffff  ................
 228d0 ff51565c 36445aa2 cbff6b8e c383adef  .QV\6DZ...k.....
 228e0 82abed81 aaeb82ac ed84b0f3 84b1f285  ................
 228f0 b0f381ab eb82abec 83aef07b 9dd380a7  ...........{....
 22900 e78e94a5 ffffff5c 544c1218 217da0dc  .......\TL..!}..
 22910 738198ff ffffffff ffffffff ffffffff  s...............
 22920 ffffffff ffffffff ffffffff ffffffff  ................
 22930 ffffffff ffffffff ffffffff ffffffff  ................
 22940 ffffffff ffffffff ffffffff ffffffff  ................
 22950 ffffffff ffffffff ffffffff ffffffff  ................
 22960 ffffffff ffffffff ffffffff ffffffff  ................
 22970 ffffffff ffffffff ffffffff ffffffff  ................
 22980 ffffffff ffffffff ffffffff ffffffff  ................
 22990 ff8799b6 87b9ff81 adef6f94 ce82aef0  ..........o.....
 229a0 81aaeb81 aaec82ac ee85b0f3 83b0f383  ................
 229b0 b1f383ae f081aaeb 85aff25a 749c92bb  ...........Zt...
 229c0 fc6781ac f1decf00 00006985 b66f90cb  .g........i..o..
 229d0 a5a8acff ffffffff ffffffff ffffffff  ................
 229e0 ffffffff ffffffff ffffffff ffffffff  ................
 229f0 ffffffff ffffffff ffffffff ffffffff  ................
 22a00 ffffffff ffffffff ffffffff ffffffff  ................
 22a10 ffffffff ffffffff ffffffff ffffffff  ................
 22a20 ffffffff ffffffff ffffffff ffffffff  ................
 22a30 ffffffff ffffffff ffffffff ffffffff  ................
 22a40 ffffffff ffffffff ffffffff ffffffff  ................
 22a50 ffa2a3a4 7caef983 b0f38ab5 f78db4f2  ....|...........
 22a60 7ea9ec82 abec84ad ed86b1f3 85b1f483  ~...............
 22a70 b1f385b1 f482acec 83aeee75 9dd979a2  ...........u..y.
 22a80 e085b0f3 3c527669 85b37795 c74d6793  ....<Rvi..w..Mg.
 22a90 fcf9f3ff ffffffff ffffffff ffffffff  ................
 22aa0 ffffffff ffffffff ffffffff ffffffff  ................
 22ab0 ffffffff ffffffff ffffffff ffffffff  ................
 22ac0 ffffffff ffffffff ffffffff ffffffff  ................
 22ad0 ffffffff ffffffff ffffffff ffffffff  ................
 22ae0 ffffffff ffffffff ffffffff ffffffff  ................
 22af0 ffffffff ffffffff ffffffff ffffffff  ................
 22b00 ffffffff ffffffff ffffffff ffffffff  ................
 22b10 ffffffff 506a9186 b7ff9fc0 f5b6cdf2  ....Pj..........
 22b20 a1bfee87 aeee8bb1 ef8bb2f2 8ab3f486  ................
 22b30 b1f483ae f182aded 83aff185 b2f684b1  ................
 22b40 f483aef0 84adef73 91c27090 c46b7380  .......s..p..ks.
 22b50 ffffffff ffffffff ffffffff ffffffff  ................
 22b60 ffffffff ffffffff ffffffff ffffffff  ................
 22b70 ffffffff ffffffff ffffffff ffffffff  ................
 22b80 ffffffff ffffffff ffffffff ffffffff  ................
 22b90 ffffffff ffffffff ffffffff ffffffff  ................
 22ba0 ffffffff ffffffff ffffffff ffffffff  ................
 22bb0 ffffffff ffffffff ffffffff ffffffff  ................
 22bc0 ffffffff ffffffff ffffffff ffffffff  ................
 22bd0 ffffffff cfcbc459 83c39cc1 fbb5ccf1  .......Y........
 22be0 b8cdf1a2 bfef8cb2 f290b4f4 8fb4f48a  ................
 22bf0 b1f083ac ec81abed 82aeef84 b0f284b1  ................
 22c00 f384b1f4 7da3dd72 8ebe4d69 98dcd9d3  ....}..r..Mi....
 22c10 ffffffff ffffffff ffffffff ffffffff  ................
 22c20 ffffffff ffffffff ffffffff ffffffff  ................
 22c30 ffffffff ffffffff ffffffff ffffffff  ................
 22c40 ffffffff ffffffff ffffffff ffffffff  ................
 22c50 ffffffff ffffffff ffffffff ffffffff  ................
 22c60 ffffffff ffffffff ffffffff ffffffff  ................
 22c70 ffffffff ffffffff ffffffff ffffffff  ................
 22c80 ffffffff ffffffff ffffffff ffffffff  ................
 22c90 ffffffff ffffff81 8386719e e5b6cef6  ..........q.....
 22ca0 b6ccf0b8 cdf193b8 f591b8f6 90b6f58e  ................
 22cb0 b2f089af ed83aced 82acee83 aff184b0  ................
 22cc0 f385b3f7 789ad272 92c55960 6dffffff  ....x..r..Y`m...
 22cd0 ffffffff ffffffff ffffffff ffffffff  ................
 22ce0 ffffffff ffffffff ffffffff ffffffff  ................
 22cf0 ffffffff ffffffff ffffffff ffffffff  ................
 22d00 ffffffff ffffffff ffffffff ffffffff  ................
 22d10 ffffffff ffffffff ffffffff ffffffff  ................
 22d20 ffffffff ffffffff ffffffff ffffffff  ................
 22d30 ffffffff ffffffff ffffffff ffffffff  ................
 22d40 ffffffff ffffffff ffffffff ffffffff  ................
 22d50 ffffffff ffffffff ffff6c74 7e81adf2  ..........lt~...
 22d60 bad3fabd d2f49dc0 f68fb6f5 91b8f68f  ................
 22d70 b5f38cb1 ee84aded 82acee83 aef184b0  ................
 22d80 f383aef1 7999d13b 5074f3f0 eaffffff  ....y..;Pt......
 22d90 ffffffff ffffffff ffffffff ffffffff  ................
 22da0 ffffffff ffffffff ffffffff ffffffff  ................
 22db0 ffffffff ffffffff ffffffff ffffffff  ................
 22dc0 ffffffff ffffffff ffffffff ffffffff  ................
 22dd0 ffffffff ffffffff ffffffff ffffffff  ................
 22de0 ffffffff ffffffff ffffffff ffffffff  ................
 22df0 ffffffff ffffffff ffffffff ffffffff  ................
 22e00 ffffffff ffffffff ffffffff ffffffff  ................
 22e10 ffffffff ffffffff ffffffff ff8d9196  ................
 22e20 6186c1a0 c7ff94bb fa90b6f4 91b7f590  a...............
 22e30 b6f48ab0 ef83adee 82adef84 b0f286b4  ................
 22e40 f87ea3e4 3c537ac0 bdb7ffff ffffffff  .~..<Sz.........
 22e50 ffffffff ffffffff ffffffff ffffffff  ................
 22e60 ffffffff ffffffff ffffffff ffffffff  ................
 22e70 ffffffff ffffffff ffffffff ffffffff  ................
 22e80 ffffffff ffffffff ffffffff ffffffff  ................
 22e90 ffffffff ffffffff ffffffff ffffffff  ................
 22ea0 ffffffff ffffffff ffffffff ffffffff  ................
 22eb0 ffffffff ffffffff ffffffff ffffffff  ................
 22ec0 ffffffff ffffffff ffffffff ffffffff  ................
 22ed0 ffffffff ffffffff ffffffff ffffffff  ................
 22ee0 dad6cf61 70896e93 d18fb9fd 92bafc94  ...ap.n.........
 22ef0 bcfe8bb5 f785b2f6 84b3f984 b4fd6991  ..............i.
 22f00 d24a5466 dedad5ff ffffffff ffffffff  .JTf............
 22f10 ffffffff ffffffff ffffffff ffffffff  ................
 22f20 ffffffff ffffffff ffffffff ffffffff  ................
 22f30 ffffffff ffffffff ffffffff ffffffff  ................
 22f40 ffffffff ffffffff ffffffff ffffffff  ................
 22f50 ffffffff ffffffff ffffffff ffffffff  ................
 22f60 ffffffff ffffffff ffffffff ffffffff  ................
 22f70 ffffffff ffffffff ffffffff ffffffff  ................
 22f80 ffffffff ffffffff ffffffff ffffffff  ................
 22f90 ffffffff ffffffff ffffffff ffffffff  ................
 22fa0 ffffffff ffffe4df d8b1b8c2 8899b45b  ...............[
 22fb0 73995a79 a7607faf 768eb193 9fafdeda  s.Zy.`..v.......
 22fc0 d5ffffff ffffffff ffffffff ffffffff  ................
 22fd0 ffffffff ffffffff ffffffff ffffffff  ................
 22fe0 ffffffff ffffffff ffffffff ffffffff  ................
 22ff0 ffffffff ffffffff ffffffff ffffffff  ................
 23000 ffffffff ffffffff ffffffff ffffffff  ................
 23010 ffffffff ffffffff ffffffff ffffffff  ................
 23020 ffffffff ffffffff ffffffff ffffffff  ................
 23030 ffffffff ffff                        ......          
Contents of section .comment:
 0000 4743433a 2028474e 55292031 312e312e  GCC: (GNU) 11.1.
 0010 3000                                 0.              
Contents of section .riscv.attributes:
 0000 411b0000 00726973 63760001 11000000  A....riscv......
 0010 04100572 76333269 32703000           ...rv32i2p0.    

Disassembly of section .text0:

00000000 <_start>:
   0:	00000093          	li	ra,0
   4:	00000113          	li	sp,0
   8:	00000193          	li	gp,0
   c:	00000213          	li	tp,0
  10:	00000293          	li	t0,0
  14:	00000313          	li	t1,0
  18:	00000393          	li	t2,0
  1c:	00000413          	li	s0,0
  20:	00000493          	li	s1,0
  24:	00000513          	li	a0,0
  28:	00000593          	li	a1,0
  2c:	00000613          	li	a2,0
  30:	00000693          	li	a3,0
  34:	00000713          	li	a4,0
  38:	00000793          	li	a5,0
  3c:	00000813          	li	a6,0
  40:	00000893          	li	a7,0
  44:	00000913          	li	s2,0
  48:	00000993          	li	s3,0
  4c:	00000a13          	li	s4,0
  50:	00000a93          	li	s5,0
  54:	00000b13          	li	s6,0
  58:	00000b93          	li	s7,0
  5c:	00000c13          	li	s8,0
  60:	00000c93          	li	s9,0
  64:	00000d13          	li	s10,0
  68:	00000d93          	li	s11,0
  6c:	00000e13          	li	t3,0
  70:	00000e93          	li	t4,0
  74:	00000f13          	li	t5,0
  78:	00000f93          	li	t6,0
  7c:	00020197          	auipc	gp,0x20
  80:	78418193          	addi	gp,gp,1924 # 20800 <_gp>

00000084 <init_bss>:
  84:	00023517          	auipc	a0,0x23
  88:	fb450513          	addi	a0,a0,-76 # 23038 <__bss_end>
  8c:	00023597          	auipc	a1,0x23
  90:	fa858593          	addi	a1,a1,-88 # 23034 <_gp+0x2834>
  94:	00000613          	li	a2,0
  98:	070000ef          	jal	ra,108 <fill_block>

0000009c <init_sbss>:
  9c:	00020517          	auipc	a0,0x20
  a0:	f6450513          	addi	a0,a0,-156 # 20000 <__data_start>
  a4:	00020597          	auipc	a1,0x20
  a8:	f5858593          	addi	a1,a1,-168 # 1fffc <__rodata_end+0xfc0c>
  ac:	00000613          	li	a2,0
  b0:	058000ef          	jal	ra,108 <fill_block>

000000b4 <write_stack_pattern>:
  b4:	00023517          	auipc	a0,0x23
  b8:	f8450513          	addi	a0,a0,-124 # 23038 <__bss_end>
  bc:	00024597          	auipc	a1,0x24
  c0:	f7858593          	addi	a1,a1,-136 # 24034 <__bss_end+0xffc>
  c4:	00000613          	li	a2,0
  c8:	040000ef          	jal	ra,108 <fill_block>

000000cc <init_stack>:
  cc:	00024117          	auipc	sp,0x24
  d0:	f6c10113          	addi	sp,sp,-148 # 24038 <__stack>

000000d4 <write_test_pattern>:
  d4:	20100517          	auipc	a0,0x20100
  d8:	f2c50513          	addi	a0,a0,-212 # 20100000 <_test_start>
  dc:	20104597          	auipc	a1,0x20104
  e0:	f2058593          	addi	a1,a1,-224 # 20103ffc <_test_start+0x3ffc>
  e4:	00000613          	li	a2,0
  e8:	020000ef          	jal	ra,108 <fill_block>

000000ec <SystemInit>:
  ec:	030000ef          	jal	ra,11c <boot>
  f0:	7110f0ef          	jal	ra,10000 <main>

000000f4 <SystemExit>:
  f4:	00030297          	auipc	t0,0x30
  f8:	f0828293          	addi	t0,t0,-248 # 2fffc <_sim_end>
  fc:	fff00313          	li	t1,-1
 100:	0062a023          	sw	t1,0(t0)

00000104 <dead_loop>:
 104:	0000006f          	j	104 <dead_loop>

00000108 <fill_block>:
 108:	00a5e863          	bltu	a1,a0,118 <fb_end>
 10c:	00c52023          	sw	a2,0(a0)
 110:	00450513          	addi	a0,a0,4
 114:	ff5ff06f          	j	108 <fill_block>

00000118 <fb_end>:
 118:	00008067          	ret

0000011c <boot>:
 11c:	fe010113          	addi	sp,sp,-32
 120:	00812e23          	sw	s0,28(sp)
 124:	02010413          	addi	s0,sp,32
 128:	200007b7          	lui	a5,0x20000
 12c:	3f078713          	addi	a4,a5,1008 # 200003f0 <_dram_i_end>
 130:	200007b7          	lui	a5,0x20000
 134:	00078793          	mv	a5,a5
 138:	40f707b3          	sub	a5,a4,a5
 13c:	4027d793          	srai	a5,a5,0x2
 140:	00178793          	addi	a5,a5,1 # 20000001 <_dram_i_start+0x1>
 144:	fef42423          	sw	a5,-24(s0)
 148:	fe042623          	sw	zero,-20(s0)
 14c:	0400006f          	j	18c <boot+0x70>
 150:	fec42783          	lw	a5,-20(s0)
 154:	00279713          	slli	a4,a5,0x2
 158:	200007b7          	lui	a5,0x20000
 15c:	00078793          	mv	a5,a5
 160:	00f70733          	add	a4,a4,a5
 164:	fec42783          	lw	a5,-20(s0)
 168:	00279693          	slli	a3,a5,0x2
 16c:	000107b7          	lui	a5,0x10
 170:	00078793          	mv	a5,a5
 174:	00f687b3          	add	a5,a3,a5
 178:	00072703          	lw	a4,0(a4)
 17c:	00e7a023          	sw	a4,0(a5) # 10000 <main>
 180:	fec42783          	lw	a5,-20(s0)
 184:	00178793          	addi	a5,a5,1
 188:	fef42623          	sw	a5,-20(s0)
 18c:	fec42703          	lw	a4,-20(s0)
 190:	fe842783          	lw	a5,-24(s0)
 194:	faf74ee3          	blt	a4,a5,150 <boot+0x34>
 198:	000207b7          	lui	a5,0x20
 19c:	00078713          	mv	a4,a5
 1a0:	000207b7          	lui	a5,0x20
 1a4:	00078793          	mv	a5,a5
 1a8:	40f707b3          	sub	a5,a4,a5
 1ac:	4027d793          	srai	a5,a5,0x2
 1b0:	00178793          	addi	a5,a5,1 # 20001 <__data_start+0x1>
 1b4:	fef42423          	sw	a5,-24(s0)
 1b8:	fe042623          	sw	zero,-20(s0)
 1bc:	0400006f          	j	1fc <boot+0xe0>
 1c0:	fec42783          	lw	a5,-20(s0)
 1c4:	00279713          	slli	a4,a5,0x2
 1c8:	201047b7          	lui	a5,0x20104
 1cc:	00078793          	mv	a5,a5
 1d0:	00f70733          	add	a4,a4,a5
 1d4:	fec42783          	lw	a5,-20(s0)
 1d8:	00279693          	slli	a3,a5,0x2
 1dc:	000207b7          	lui	a5,0x20
 1e0:	00078793          	mv	a5,a5
 1e4:	00f687b3          	add	a5,a3,a5
 1e8:	00072703          	lw	a4,0(a4)
 1ec:	00e7a023          	sw	a4,0(a5) # 20000 <__data_start>
 1f0:	fec42783          	lw	a5,-20(s0)
 1f4:	00178793          	addi	a5,a5,1
 1f8:	fef42623          	sw	a5,-20(s0)
 1fc:	fec42703          	lw	a4,-20(s0)
 200:	fe842783          	lw	a5,-24(s0)
 204:	faf74ee3          	blt	a4,a5,1c0 <boot+0xa4>
 208:	000237b7          	lui	a5,0x23
 20c:	03678713          	addi	a4,a5,54 # 23036 <__data_end>
 210:	000207b7          	lui	a5,0x20
 214:	00078793          	mv	a5,a5
 218:	40f707b3          	sub	a5,a4,a5
 21c:	4027d793          	srai	a5,a5,0x2
 220:	00178793          	addi	a5,a5,1 # 20001 <__data_start+0x1>
 224:	fef42423          	sw	a5,-24(s0)
 228:	fe042623          	sw	zero,-20(s0)
 22c:	0400006f          	j	26c <boot+0x150>
 230:	fec42783          	lw	a5,-20(s0)
 234:	00279713          	slli	a4,a5,0x2
 238:	201047b7          	lui	a5,0x20104
 23c:	00078793          	mv	a5,a5
 240:	00f70733          	add	a4,a4,a5
 244:	fec42783          	lw	a5,-20(s0)
 248:	00279693          	slli	a3,a5,0x2
 24c:	000207b7          	lui	a5,0x20
 250:	00078793          	mv	a5,a5
 254:	00f687b3          	add	a5,a3,a5
 258:	00072703          	lw	a4,0(a4)
 25c:	00e7a023          	sw	a4,0(a5) # 20000 <__data_start>
 260:	fec42783          	lw	a5,-20(s0)
 264:	00178793          	addi	a5,a5,1
 268:	fef42623          	sw	a5,-20(s0)
 26c:	fec42703          	lw	a4,-20(s0)
 270:	fe842783          	lw	a5,-24(s0)
 274:	faf74ee3          	blt	a4,a5,230 <boot+0x114>
 278:	00000013          	nop
 27c:	00000013          	nop
 280:	01c12403          	lw	s0,28(sp)
 284:	02010113          	addi	sp,sp,32
 288:	00008067          	ret

Disassembly of section .text1:

00010000 <main>:
   10000:	fd010113          	addi	sp,sp,-48
   10004:	02812623          	sw	s0,44(sp)
   10008:	03010413          	addi	s0,sp,48
   1000c:	fe042623          	sw	zero,-20(s0)
   10010:	0380006f          	j	10048 <main+0x48>
   10014:	fec42703          	lw	a4,-20(s0)
   10018:	000207b7          	lui	a5,0x20
   1001c:	00078793          	mv	a5,a5
   10020:	00f70733          	add	a4,a4,a5
   10024:	fec42683          	lw	a3,-20(s0)
   10028:	201007b7          	lui	a5,0x20100
   1002c:	00078793          	mv	a5,a5
   10030:	00f687b3          	add	a5,a3,a5
   10034:	00074703          	lbu	a4,0(a4)
   10038:	00e78023          	sb	a4,0(a5) # 20100000 <_test_start>
   1003c:	fec42783          	lw	a5,-20(s0)
   10040:	00178793          	addi	a5,a5,1
   10044:	fef42623          	sw	a5,-20(s0)
   10048:	fec42703          	lw	a4,-20(s0)
   1004c:	03500793          	li	a5,53
   10050:	fce7d2e3          	bge	a5,a4,10014 <main+0x14>
   10054:	fe042223          	sw	zero,-28(s0)
   10058:	fe042023          	sw	zero,-32(s0)
   1005c:	fc042e23          	sw	zero,-36(s0)
   10060:	03600793          	li	a5,54
   10064:	fef42423          	sw	a5,-24(s0)
   10068:	3640006f          	j	103cc <main+0x3cc>
   1006c:	fc042c23          	sw	zero,-40(s0)
   10070:	fc042a23          	sw	zero,-44(s0)
   10074:	fe842703          	lw	a4,-24(s0)
   10078:	000207b7          	lui	a5,0x20
   1007c:	00078793          	mv	a5,a5
   10080:	00f707b3          	add	a5,a4,a5
   10084:	0007c783          	lbu	a5,0(a5) # 20000 <__data_start>
   10088:	fcf42e23          	sw	a5,-36(s0)
   1008c:	fe842783          	lw	a5,-24(s0)
   10090:	00178713          	addi	a4,a5,1
   10094:	000207b7          	lui	a5,0x20
   10098:	00078793          	mv	a5,a5
   1009c:	00f707b3          	add	a5,a4,a5
   100a0:	0007c783          	lbu	a5,0(a5) # 20000 <__data_start>
   100a4:	fef42023          	sw	a5,-32(s0)
   100a8:	fe842783          	lw	a5,-24(s0)
   100ac:	00278713          	addi	a4,a5,2
   100b0:	000207b7          	lui	a5,0x20
   100b4:	00078793          	mv	a5,a5
   100b8:	00f707b3          	add	a5,a4,a5
   100bc:	0007c783          	lbu	a5,0(a5) # 20000 <__data_start>
   100c0:	fef42223          	sw	a5,-28(s0)
   100c4:	fe442783          	lw	a5,-28(s0)
   100c8:	01279793          	slli	a5,a5,0x12
   100cc:	fcf42a23          	sw	a5,-44(s0)
   100d0:	fd842703          	lw	a4,-40(s0)
   100d4:	fd442783          	lw	a5,-44(s0)
   100d8:	00f707b3          	add	a5,a4,a5
   100dc:	fcf42c23          	sw	a5,-40(s0)
   100e0:	fe442783          	lw	a5,-28(s0)
   100e4:	00f79793          	slli	a5,a5,0xf
   100e8:	fcf42a23          	sw	a5,-44(s0)
   100ec:	fd842703          	lw	a4,-40(s0)
   100f0:	fd442783          	lw	a5,-44(s0)
   100f4:	00f707b3          	add	a5,a4,a5
   100f8:	fcf42c23          	sw	a5,-40(s0)
   100fc:	fe442783          	lw	a5,-28(s0)
   10100:	00e79793          	slli	a5,a5,0xe
   10104:	fcf42a23          	sw	a5,-44(s0)
   10108:	fd842703          	lw	a4,-40(s0)
   1010c:	fd442783          	lw	a5,-44(s0)
   10110:	00f707b3          	add	a5,a4,a5
   10114:	fcf42c23          	sw	a5,-40(s0)
   10118:	fe442783          	lw	a5,-28(s0)
   1011c:	00b79793          	slli	a5,a5,0xb
   10120:	fcf42a23          	sw	a5,-44(s0)
   10124:	fd842703          	lw	a4,-40(s0)
   10128:	fd442783          	lw	a5,-44(s0)
   1012c:	00f707b3          	add	a5,a4,a5
   10130:	fcf42c23          	sw	a5,-40(s0)
   10134:	fe442783          	lw	a5,-28(s0)
   10138:	00a79793          	slli	a5,a5,0xa
   1013c:	fcf42a23          	sw	a5,-44(s0)
   10140:	fd842703          	lw	a4,-40(s0)
   10144:	fd442783          	lw	a5,-44(s0)
   10148:	00f707b3          	add	a5,a4,a5
   1014c:	fcf42c23          	sw	a5,-40(s0)
   10150:	fe442783          	lw	a5,-28(s0)
   10154:	00779793          	slli	a5,a5,0x7
   10158:	fcf42a23          	sw	a5,-44(s0)
   1015c:	fd842703          	lw	a4,-40(s0)
   10160:	fd442783          	lw	a5,-44(s0)
   10164:	00f707b3          	add	a5,a4,a5
   10168:	fcf42c23          	sw	a5,-40(s0)
   1016c:	fe442783          	lw	a5,-28(s0)
   10170:	00679793          	slli	a5,a5,0x6
   10174:	fcf42a23          	sw	a5,-44(s0)
   10178:	fd842703          	lw	a4,-40(s0)
   1017c:	fd442783          	lw	a5,-44(s0)
   10180:	00f707b3          	add	a5,a4,a5
   10184:	fcf42c23          	sw	a5,-40(s0)
   10188:	fe442783          	lw	a5,-28(s0)
   1018c:	00379793          	slli	a5,a5,0x3
   10190:	fcf42a23          	sw	a5,-44(s0)
   10194:	fd842703          	lw	a4,-40(s0)
   10198:	fd442783          	lw	a5,-44(s0)
   1019c:	00f707b3          	add	a5,a4,a5
   101a0:	fcf42c23          	sw	a5,-40(s0)
   101a4:	fe442783          	lw	a5,-28(s0)
   101a8:	00279793          	slli	a5,a5,0x2
   101ac:	fcf42a23          	sw	a5,-44(s0)
   101b0:	fd842703          	lw	a4,-40(s0)
   101b4:	fd442783          	lw	a5,-44(s0)
   101b8:	00f707b3          	add	a5,a4,a5
   101bc:	fcf42c23          	sw	a5,-40(s0)
   101c0:	fd842703          	lw	a4,-40(s0)
   101c4:	fe442783          	lw	a5,-28(s0)
   101c8:	00f707b3          	add	a5,a4,a5
   101cc:	fcf42c23          	sw	a5,-40(s0)
   101d0:	fe042783          	lw	a5,-32(s0)
   101d4:	01379793          	slli	a5,a5,0x13
   101d8:	fcf42a23          	sw	a5,-44(s0)
   101dc:	fd842703          	lw	a4,-40(s0)
   101e0:	fd442783          	lw	a5,-44(s0)
   101e4:	00f707b3          	add	a5,a4,a5
   101e8:	fcf42c23          	sw	a5,-40(s0)
   101ec:	fe042783          	lw	a5,-32(s0)
   101f0:	01079793          	slli	a5,a5,0x10
   101f4:	fcf42a23          	sw	a5,-44(s0)
   101f8:	fd842703          	lw	a4,-40(s0)
   101fc:	fd442783          	lw	a5,-44(s0)
   10200:	00f707b3          	add	a5,a4,a5
   10204:	fcf42c23          	sw	a5,-40(s0)
   10208:	fe042783          	lw	a5,-32(s0)
   1020c:	00e79793          	slli	a5,a5,0xe
   10210:	fcf42a23          	sw	a5,-44(s0)
   10214:	fd842703          	lw	a4,-40(s0)
   10218:	fd442783          	lw	a5,-44(s0)
   1021c:	00f707b3          	add	a5,a4,a5
   10220:	fcf42c23          	sw	a5,-40(s0)
   10224:	fe042783          	lw	a5,-32(s0)
   10228:	00d79793          	slli	a5,a5,0xd
   1022c:	fcf42a23          	sw	a5,-44(s0)
   10230:	fd842703          	lw	a4,-40(s0)
   10234:	fd442783          	lw	a5,-44(s0)
   10238:	00f707b3          	add	a5,a4,a5
   1023c:	fcf42c23          	sw	a5,-40(s0)
   10240:	fe042783          	lw	a5,-32(s0)
   10244:	00c79793          	slli	a5,a5,0xc
   10248:	fcf42a23          	sw	a5,-44(s0)
   1024c:	fd842703          	lw	a4,-40(s0)
   10250:	fd442783          	lw	a5,-44(s0)
   10254:	00f707b3          	add	a5,a4,a5
   10258:	fcf42c23          	sw	a5,-40(s0)
   1025c:	fe042783          	lw	a5,-32(s0)
   10260:	00779793          	slli	a5,a5,0x7
   10264:	fcf42a23          	sw	a5,-44(s0)
   10268:	fd842703          	lw	a4,-40(s0)
   1026c:	fd442783          	lw	a5,-44(s0)
   10270:	00f707b3          	add	a5,a4,a5
   10274:	fcf42c23          	sw	a5,-40(s0)
   10278:	fe042783          	lw	a5,-32(s0)
   1027c:	00579793          	slli	a5,a5,0x5
   10280:	fcf42a23          	sw	a5,-44(s0)
   10284:	fd842703          	lw	a4,-40(s0)
   10288:	fd442783          	lw	a5,-44(s0)
   1028c:	00f707b3          	add	a5,a4,a5
   10290:	fcf42c23          	sw	a5,-40(s0)
   10294:	fe042783          	lw	a5,-32(s0)
   10298:	00279793          	slli	a5,a5,0x2
   1029c:	fcf42a23          	sw	a5,-44(s0)
   102a0:	fd842703          	lw	a4,-40(s0)
   102a4:	fd442783          	lw	a5,-44(s0)
   102a8:	00f707b3          	add	a5,a4,a5
   102ac:	fcf42c23          	sw	a5,-40(s0)
   102b0:	fdc42783          	lw	a5,-36(s0)
   102b4:	01079793          	slli	a5,a5,0x10
   102b8:	fcf42a23          	sw	a5,-44(s0)
   102bc:	fd842703          	lw	a4,-40(s0)
   102c0:	fd442783          	lw	a5,-44(s0)
   102c4:	00f707b3          	add	a5,a4,a5
   102c8:	fcf42c23          	sw	a5,-40(s0)
   102cc:	fdc42783          	lw	a5,-36(s0)
   102d0:	00f79793          	slli	a5,a5,0xf
   102d4:	fcf42a23          	sw	a5,-44(s0)
   102d8:	fd842703          	lw	a4,-40(s0)
   102dc:	fd442783          	lw	a5,-44(s0)
   102e0:	00f707b3          	add	a5,a4,a5
   102e4:	fcf42c23          	sw	a5,-40(s0)
   102e8:	fdc42783          	lw	a5,-36(s0)
   102ec:	00e79793          	slli	a5,a5,0xe
   102f0:	fcf42a23          	sw	a5,-44(s0)
   102f4:	fd842703          	lw	a4,-40(s0)
   102f8:	fd442783          	lw	a5,-44(s0)
   102fc:	00f707b3          	add	a5,a4,a5
   10300:	fcf42c23          	sw	a5,-40(s0)
   10304:	fdc42783          	lw	a5,-36(s0)
   10308:	00979793          	slli	a5,a5,0x9
   1030c:	fcf42a23          	sw	a5,-44(s0)
   10310:	fd842703          	lw	a4,-40(s0)
   10314:	fd442783          	lw	a5,-44(s0)
   10318:	00f707b3          	add	a5,a4,a5
   1031c:	fcf42c23          	sw	a5,-40(s0)
   10320:	fdc42783          	lw	a5,-36(s0)
   10324:	00779793          	slli	a5,a5,0x7
   10328:	fcf42a23          	sw	a5,-44(s0)
   1032c:	fd842703          	lw	a4,-40(s0)
   10330:	fd442783          	lw	a5,-44(s0)
   10334:	00f707b3          	add	a5,a4,a5
   10338:	fcf42c23          	sw	a5,-40(s0)
   1033c:	fdc42783          	lw	a5,-36(s0)
   10340:	00479793          	slli	a5,a5,0x4
   10344:	fcf42a23          	sw	a5,-44(s0)
   10348:	fd842703          	lw	a4,-40(s0)
   1034c:	fd442783          	lw	a5,-44(s0)
   10350:	00f707b3          	add	a5,a4,a5
   10354:	fcf42c23          	sw	a5,-40(s0)
   10358:	fd842783          	lw	a5,-40(s0)
   1035c:	4147d793          	srai	a5,a5,0x14
   10360:	fcf42c23          	sw	a5,-40(s0)
   10364:	fe842703          	lw	a4,-24(s0)
   10368:	201007b7          	lui	a5,0x20100
   1036c:	00078793          	mv	a5,a5
   10370:	00f707b3          	add	a5,a4,a5
   10374:	fd842703          	lw	a4,-40(s0)
   10378:	0ff77713          	zext.b	a4,a4
   1037c:	00e78023          	sb	a4,0(a5) # 20100000 <_test_start>
   10380:	fe842783          	lw	a5,-24(s0)
   10384:	00178713          	addi	a4,a5,1
   10388:	201007b7          	lui	a5,0x20100
   1038c:	00078793          	mv	a5,a5
   10390:	00f707b3          	add	a5,a4,a5
   10394:	fd842703          	lw	a4,-40(s0)
   10398:	0ff77713          	zext.b	a4,a4
   1039c:	00e78023          	sb	a4,0(a5) # 20100000 <_test_start>
   103a0:	fe842783          	lw	a5,-24(s0)
   103a4:	00278713          	addi	a4,a5,2
   103a8:	201007b7          	lui	a5,0x20100
   103ac:	00078793          	mv	a5,a5
   103b0:	00f707b3          	add	a5,a4,a5
   103b4:	fd842703          	lw	a4,-40(s0)
   103b8:	0ff77713          	zext.b	a4,a4
   103bc:	00e78023          	sb	a4,0(a5) # 20100000 <_test_start>
   103c0:	fe842783          	lw	a5,-24(s0)
   103c4:	00378793          	addi	a5,a5,3
   103c8:	fef42423          	sw	a5,-24(s0)
   103cc:	fe842703          	lw	a4,-24(s0)
   103d0:	000037b7          	lui	a5,0x3
   103d4:	03678793          	addi	a5,a5,54 # 3036 <_binary_image_bmp_size>
   103d8:	c8f76ae3          	bltu	a4,a5,1006c <main+0x6c>
   103dc:	00000793          	li	a5,0
   103e0:	00078513          	mv	a0,a5
   103e4:	02c12403          	lw	s0,44(sp)
   103e8:	03010113          	addi	sp,sp,48
   103ec:	00008067          	ret
